; ModuleID = 'source-C-CXX/10/974.cpp'
source_filename = "source-C-CXX/10/974.cpp"
target datalayout = "e-m:e-p270:32:32-p271:32:32-p272:64:64-i64:64-f80:128-n8:16:32:64-S128"
target triple = "x86_64-pc-linux-gnu"

%"class.std::ios_base::Init" = type { i8 }
%"class.std::basic_istream" = type { i32 (...)**, i64, %"class.std::basic_ios" }
%"class.std::basic_ios" = type { %"class.std::ios_base", %"class.std::basic_ostream"*, i8, i8, %"class.std::basic_streambuf"*, %"class.std::ctype"*, %"class.std::num_put"*, %"class.std::num_get"* }
%"class.std::ios_base" = type { i32 (...)**, i64, i64, i32, i32, i32, %"struct.std::ios_base::_Callback_list"*, %"struct.std::ios_base::_Words", [8 x %"struct.std::ios_base::_Words"], i32, %"struct.std::ios_base::_Words"*, %"class.std::locale" }
%"struct.std::ios_base::_Callback_list" = type { %"struct.std::ios_base::_Callback_list"*, void (i32, %"class.std::ios_base"*, i32)*, i32, i32 }
%"struct.std::ios_base::_Words" = type { i8*, i64 }
%"class.std::locale" = type { %"class.std::locale::_Impl"* }
%"class.std::locale::_Impl" = type { i32, %"class.std::locale::facet"**, i64, %"class.std::locale::facet"**, i8** }
%"class.std::locale::facet" = type <{ i32 (...)**, i32, [4 x i8] }>
%"class.std::basic_ostream" = type { i32 (...)**, %"class.std::basic_ios" }
%"class.std::basic_streambuf" = type { i32 (...)**, i8*, i8*, i8*, i8*, i8*, i8*, %"class.std::locale" }
%"class.std::ctype" = type <{ %"class.std::locale::facet.base", [4 x i8], %struct.__locale_struct*, i8, [7 x i8], i32*, i32*, i16*, i8, [256 x i8], [256 x i8], i8, [6 x i8] }>
%"class.std::locale::facet.base" = type <{ i32 (...)**, i32 }>
%struct.__locale_struct = type { [13 x %struct.__locale_data*], i16*, i32*, i32*, [13 x i8*] }
%struct.__locale_data = type opaque
%"class.std::num_put" = type { %"class.std::locale::facet.base", [4 x i8] }
%"class.std::num_get" = type { %"class.std::locale::facet.base", [4 x i8] }

@_ZStL8__ioinit = internal global %"class.std::ios_base::Init" zeroinitializer, align 1
@__dso_handle = external hidden global i8
@__const.main.DaysOfMonth = private unnamed_addr constant [2 x [13 x i32]] [[13 x i32] [i32 0, i32 31, i32 28, i32 31, i32 30, i32 31, i32 30, i32 31, i32 31, i32 30, i32 31, i32 30, i32 31], [13 x i32] [i32 0, i32 31, i32 29, i32 31, i32 30, i32 31, i32 30, i32 31, i32 31, i32 30, i32 31, i32 30, i32 31]], align 16
@_ZSt3cin = external global %"class.std::basic_istream", align 8
@_ZSt4cout = external global %"class.std::basic_ostream", align 8
@llvm.global_ctors = appending global [1 x { i32, void ()*, i8* }] [{ i32, void ()*, i8* } { i32 65535, void ()* @_GLOBAL__sub_I_974.cpp, i8* null }]

declare void @_ZNSt8ios_base4InitC1Ev(%"class.std::ios_base::Init"* nonnull align 1 dereferenceable(1)) unnamed_addr #0

; Function Attrs: nounwind
declare void @_ZNSt8ios_base4InitD1Ev(%"class.std::ios_base::Init"* nonnull align 1 dereferenceable(1)) unnamed_addr #1

; Function Attrs: nofree nounwind
declare i32 @__cxa_atexit(void (i8*)*, i8*, i8*) local_unnamed_addr #2

; Function Attrs: mustprogress norecurse sspstrong uwtable
define dso_local i32 @main() local_unnamed_addr #3 {
  %1 = alloca i32, align 4
  %2 = alloca i32, align 4
  %3 = alloca i32, align 4
  %4 = bitcast i32* %1 to i8*
  call void @llvm.lifetime.start.p0i8(i64 4, i8* nonnull %4) #8
  %5 = bitcast i32* %2 to i8*
  call void @llvm.lifetime.start.p0i8(i64 4, i8* nonnull %5) #8
  %6 = bitcast i32* %3 to i8*
  call void @llvm.lifetime.start.p0i8(i64 4, i8* nonnull %6) #8
  %7 = call nonnull align 8 dereferenceable(16) %"class.std::basic_istream"* @_ZNSirsERi(%"class.std::basic_istream"* nonnull align 8 dereferenceable(16) @_ZSt3cin, i32* nonnull align 4 dereferenceable(4) %1)
  %8 = call nonnull align 8 dereferenceable(16) %"class.std::basic_istream"* @_ZNSirsERi(%"class.std::basic_istream"* nonnull align 8 dereferenceable(16) %7, i32* nonnull align 4 dereferenceable(4) %2)
  %9 = call nonnull align 8 dereferenceable(16) %"class.std::basic_istream"* @_ZNSirsERi(%"class.std::basic_istream"* nonnull align 8 dereferenceable(16) %8, i32* nonnull align 4 dereferenceable(4) %3)
  %10 = load i32, i32* %1, align 4, !tbaa !5
  %11 = and i32 %10, 3
  %12 = icmp eq i32 %11, 0
  br i1 %12, label %13, label %20

13:                                               ; preds = %0
  %14 = srem i32 %10, 100
  %15 = icmp ne i32 %14, 0
  %16 = srem i32 %10, 400
  %17 = icmp eq i32 %16, 0
  %18 = or i1 %15, %17
  %19 = zext i1 %18 to i64
  br label %20

20:                                               ; preds = %13, %0
  %21 = phi i64 [ 0, %0 ], [ %19, %13 ]
  %22 = load i32, i32* %2, align 4, !tbaa !5
  %23 = icmp eq i32 %22, 1
  br i1 %23, label %93, label %24

24:                                               ; preds = %20
  %25 = icmp sgt i32 %22, 1
  br i1 %25, label %26, label %132

26:                                               ; preds = %24
  %27 = zext i32 %22 to i64
  %28 = add nsw i64 %27, -1
  %29 = icmp ult i64 %28, 8
  br i1 %29, label %90, label %30

30:                                               ; preds = %26
  %31 = and i64 %28, -8
  %32 = or i64 %31, 1
  %33 = add nsw i64 %31, -8
  %34 = lshr exact i64 %33, 3
  %35 = add nuw nsw i64 %34, 1
  %36 = and i64 %35, 1
  %37 = icmp eq i64 %33, 0
  br i1 %37, label %68, label %38

38:                                               ; preds = %30
  %39 = and i64 %35, 4611686018427387902
  br label %40

40:                                               ; preds = %40, %38
  %41 = phi i64 [ 0, %38 ], [ %63, %40 ]
  %42 = phi <4 x i32> [ zeroinitializer, %38 ], [ %61, %40 ]
  %43 = phi <4 x i32> [ zeroinitializer, %38 ], [ %62, %40 ]
  %44 = phi i64 [ %39, %38 ], [ %64, %40 ]
  %45 = or i64 %41, 1
  %46 = getelementptr inbounds [2 x [13 x i32]], [2 x [13 x i32]]* @__const.main.DaysOfMonth, i64 0, i64 %21, i64 %45
  %47 = bitcast i32* %46 to <4 x i32>*
  %48 = load <4 x i32>, <4 x i32>* %47, align 4, !tbaa !5
  %49 = getelementptr inbounds i32, i32* %46, i64 4
  %50 = bitcast i32* %49 to <4 x i32>*
  %51 = load <4 x i32>, <4 x i32>* %50, align 4, !tbaa !5
  %52 = add <4 x i32> %48, %42
  %53 = add <4 x i32> %51, %43
  %54 = or i64 %41, 9
  %55 = getelementptr inbounds [2 x [13 x i32]], [2 x [13 x i32]]* @__const.main.DaysOfMonth, i64 0, i64 %21, i64 %54
  %56 = bitcast i32* %55 to <4 x i32>*
  %57 = load <4 x i32>, <4 x i32>* %56, align 4, !tbaa !5
  %58 = getelementptr inbounds i32, i32* %55, i64 4
  %59 = bitcast i32* %58 to <4 x i32>*
  %60 = load <4 x i32>, <4 x i32>* %59, align 4, !tbaa !5
  %61 = add <4 x i32> %57, %52
  %62 = add <4 x i32> %60, %53
  %63 = add nuw i64 %41, 16
  %64 = add i64 %44, -2
  %65 = icmp eq i64 %64, 0
  br i1 %65, label %66, label %40, !llvm.loop !9

66:                                               ; preds = %40
  %67 = or i64 %63, 1
  br label %68

68:                                               ; preds = %66, %30
  %69 = phi <4 x i32> [ undef, %30 ], [ %61, %66 ]
  %70 = phi <4 x i32> [ undef, %30 ], [ %62, %66 ]
  %71 = phi i64 [ 1, %30 ], [ %67, %66 ]
  %72 = phi <4 x i32> [ zeroinitializer, %30 ], [ %61, %66 ]
  %73 = phi <4 x i32> [ zeroinitializer, %30 ], [ %62, %66 ]
  %74 = icmp eq i64 %36, 0
  br i1 %74, label %84, label %75

75:                                               ; preds = %68
  %76 = getelementptr inbounds [2 x [13 x i32]], [2 x [13 x i32]]* @__const.main.DaysOfMonth, i64 0, i64 %21, i64 %71
  %77 = getelementptr inbounds i32, i32* %76, i64 4
  %78 = bitcast i32* %77 to <4 x i32>*
  %79 = load <4 x i32>, <4 x i32>* %78, align 4, !tbaa !5
  %80 = add <4 x i32> %79, %73
  %81 = bitcast i32* %76 to <4 x i32>*
  %82 = load <4 x i32>, <4 x i32>* %81, align 4, !tbaa !5
  %83 = add <4 x i32> %82, %72
  br label %84

84:                                               ; preds = %68, %75
  %85 = phi <4 x i32> [ %69, %68 ], [ %83, %75 ]
  %86 = phi <4 x i32> [ %70, %68 ], [ %80, %75 ]
  %87 = add <4 x i32> %86, %85
  %88 = call i32 @llvm.vector.reduce.add.v4i32(<4 x i32> %87)
  %89 = icmp eq i64 %28, %31
  br i1 %89, label %132, label %90

90:                                               ; preds = %26, %84
  %91 = phi i64 [ 1, %26 ], [ %32, %84 ]
  %92 = phi i32 [ 0, %26 ], [ %88, %84 ]
  br label %124

93:                                               ; preds = %20
  %94 = load i32, i32* %3, align 4, !tbaa !5
  %95 = call nonnull align 8 dereferenceable(8) %"class.std::basic_ostream"* @_ZNSolsEi(%"class.std::basic_ostream"* nonnull align 8 dereferenceable(8) @_ZSt4cout, i32 %94)
  %96 = bitcast %"class.std::basic_ostream"* %95 to i8**
  %97 = load i8*, i8** %96, align 8, !tbaa !12
  %98 = getelementptr i8, i8* %97, i64 -24
  %99 = bitcast i8* %98 to i64*
  %100 = load i64, i64* %99, align 8
  %101 = bitcast %"class.std::basic_ostream"* %95 to i8*
  %102 = add nsw i64 %100, 240
  %103 = getelementptr inbounds i8, i8* %101, i64 %102
  %104 = bitcast i8* %103 to %"class.std::ctype"**
  %105 = load %"class.std::ctype"*, %"class.std::ctype"** %104, align 8, !tbaa !14
  %106 = icmp eq %"class.std::ctype"* %105, null
  br i1 %106, label %107, label %108

107:                                              ; preds = %93
  call void @_ZSt16__throw_bad_castv() #9
  unreachable

108:                                              ; preds = %93
  %109 = getelementptr inbounds %"class.std::ctype", %"class.std::ctype"* %105, i64 0, i32 8
  %110 = load i8, i8* %109, align 8, !tbaa !18
  %111 = icmp eq i8 %110, 0
  br i1 %111, label %115, label %112

112:                                              ; preds = %108
  %113 = getelementptr inbounds %"class.std::ctype", %"class.std::ctype"* %105, i64 0, i32 9, i64 10
  %114 = load i8, i8* %113, align 1, !tbaa !20
  br label %121

115:                                              ; preds = %108
  call void @_ZNKSt5ctypeIcE13_M_widen_initEv(%"class.std::ctype"* nonnull align 8 dereferenceable(570) %105)
  %116 = bitcast %"class.std::ctype"* %105 to i8 (%"class.std::ctype"*, i8)***
  %117 = load i8 (%"class.std::ctype"*, i8)**, i8 (%"class.std::ctype"*, i8)*** %116, align 8, !tbaa !12
  %118 = getelementptr inbounds i8 (%"class.std::ctype"*, i8)*, i8 (%"class.std::ctype"*, i8)** %117, i64 6
  %119 = load i8 (%"class.std::ctype"*, i8)*, i8 (%"class.std::ctype"*, i8)** %118, align 8
  %120 = call signext i8 %119(%"class.std::ctype"* nonnull align 8 dereferenceable(570) %105, i8 signext 10)
  br label %121

121:                                              ; preds = %112, %115
  %122 = phi i8 [ %114, %112 ], [ %120, %115 ]
  %123 = call nonnull align 8 dereferenceable(8) %"class.std::basic_ostream"* @_ZNSo3putEc(%"class.std::basic_ostream"* nonnull align 8 dereferenceable(8) %95, i8 signext %122)
  br label %165

124:                                              ; preds = %90, %124
  %125 = phi i64 [ %130, %124 ], [ %91, %90 ]
  %126 = phi i32 [ %129, %124 ], [ %92, %90 ]
  %127 = getelementptr inbounds [2 x [13 x i32]], [2 x [13 x i32]]* @__const.main.DaysOfMonth, i64 0, i64 %21, i64 %125
  %128 = load i32, i32* %127, align 4, !tbaa !5
  %129 = add nsw i32 %128, %126
  %130 = add nuw nsw i64 %125, 1
  %131 = icmp eq i64 %130, %27
  br i1 %131, label %132, label %124, !llvm.loop !21

132:                                              ; preds = %124, %84, %24
  %133 = phi i32 [ 0, %24 ], [ %88, %84 ], [ %129, %124 ]
  %134 = load i32, i32* %3, align 4, !tbaa !5
  %135 = add nsw i32 %134, %133
  %136 = call nonnull align 8 dereferenceable(8) %"class.std::basic_ostream"* @_ZNSolsEi(%"class.std::basic_ostream"* nonnull align 8 dereferenceable(8) @_ZSt4cout, i32 %135)
  %137 = bitcast %"class.std::basic_ostream"* %136 to i8**
  %138 = load i8*, i8** %137, align 8, !tbaa !12
  %139 = getelementptr i8, i8* %138, i64 -24
  %140 = bitcast i8* %139 to i64*
  %141 = load i64, i64* %140, align 8
  %142 = bitcast %"class.std::basic_ostream"* %136 to i8*
  %143 = add nsw i64 %141, 240
  %144 = getelementptr inbounds i8, i8* %142, i64 %143
  %145 = bitcast i8* %144 to %"class.std::ctype"**
  %146 = load %"class.std::ctype"*, %"class.std::ctype"** %145, align 8, !tbaa !14
  %147 = icmp eq %"class.std::ctype"* %146, null
  br i1 %147, label %148, label %149

148:                                              ; preds = %132
  call void @_ZSt16__throw_bad_castv() #9
  unreachable

149:                                              ; preds = %132
  %150 = getelementptr inbounds %"class.std::ctype", %"class.std::ctype"* %146, i64 0, i32 8
  %151 = load i8, i8* %150, align 8, !tbaa !18
  %152 = icmp eq i8 %151, 0
  br i1 %152, label %156, label %153

153:                                              ; preds = %149
  %154 = getelementptr inbounds %"class.std::ctype", %"class.std::ctype"* %146, i64 0, i32 9, i64 10
  %155 = load i8, i8* %154, align 1, !tbaa !20
  br label %162

156:                                              ; preds = %149
  call void @_ZNKSt5ctypeIcE13_M_widen_initEv(%"class.std::ctype"* nonnull align 8 dereferenceable(570) %146)
  %157 = bitcast %"class.std::ctype"* %146 to i8 (%"class.std::ctype"*, i8)***
  %158 = load i8 (%"class.std::ctype"*, i8)**, i8 (%"class.std::ctype"*, i8)*** %157, align 8, !tbaa !12
  %159 = getelementptr inbounds i8 (%"class.std::ctype"*, i8)*, i8 (%"class.std::ctype"*, i8)** %158, i64 6
  %160 = load i8 (%"class.std::ctype"*, i8)*, i8 (%"class.std::ctype"*, i8)** %159, align 8
  %161 = call signext i8 %160(%"class.std::ctype"* nonnull align 8 dereferenceable(570) %146, i8 signext 10)
  br label %162

162:                                              ; preds = %153, %156
  %163 = phi i8 [ %155, %153 ], [ %161, %156 ]
  %164 = call nonnull align 8 dereferenceable(8) %"class.std::basic_ostream"* @_ZNSo3putEc(%"class.std::basic_ostream"* nonnull align 8 dereferenceable(8) %136, i8 signext %163)
  br label %165

165:                                              ; preds = %162, %121
  %166 = phi %"class.std::basic_ostream"* [ %164, %162 ], [ %123, %121 ]
  %167 = call nonnull align 8 dereferenceable(8) %"class.std::basic_ostream"* @_ZNSo5flushEv(%"class.std::basic_ostream"* nonnull align 8 dereferenceable(8) %166)
  call void @llvm.lifetime.end.p0i8(i64 4, i8* nonnull %6) #8
  call void @llvm.lifetime.end.p0i8(i64 4, i8* nonnull %5) #8
  call void @llvm.lifetime.end.p0i8(i64 4, i8* nonnull %4) #8
  ret i32 0
}

; Function Attrs: argmemonly mustprogress nofree nosync nounwind willreturn
declare void @llvm.lifetime.start.p0i8(i64 immarg, i8* nocapture) #4

declare nonnull align 8 dereferenceable(16) %"class.std::basic_istream"* @_ZNSirsERi(%"class.std::basic_istream"* nonnull align 8 dereferenceable(16), i32* nonnull align 4 dereferenceable(4)) local_unnamed_addr #0

declare nonnull align 8 dereferenceable(8) %"class.std::basic_ostream"* @_ZNSolsEi(%"class.std::basic_ostream"* nonnull align 8 dereferenceable(8), i32) local_unnamed_addr #0

; Function Attrs: argmemonly mustprogress nofree nosync nounwind willreturn
declare void @llvm.lifetime.end.p0i8(i64 immarg, i8* nocapture) #4

declare nonnull align 8 dereferenceable(8) %"class.std::basic_ostream"* @_ZNSo3putEc(%"class.std::basic_ostream"* nonnull align 8 dereferenceable(8), i8 signext) local_unnamed_addr #0

declare nonnull align 8 dereferenceable(8) %"class.std::basic_ostream"* @_ZNSo5flushEv(%"class.std::basic_ostream"* nonnull align 8 dereferenceable(8)) local_unnamed_addr #0

; Function Attrs: noreturn
declare void @_ZSt16__throw_bad_castv() local_unnamed_addr #5

declare void @_ZNKSt5ctypeIcE13_M_widen_initEv(%"class.std::ctype"* nonnull align 8 dereferenceable(570)) local_unnamed_addr #0

; Function Attrs: sspstrong uwtable
define internal void @_GLOBAL__sub_I_974.cpp() #6 section ".text.startup" {
  tail call void @_ZNSt8ios_base4InitC1Ev(%"class.std::ios_base::Init"* nonnull align 1 dereferenceable(1) @_ZStL8__ioinit)
  %1 = tail call i32 @__cxa_atexit(void (i8*)* bitcast (void (%"class.std::ios_base::Init"*)* @_ZNSt8ios_base4InitD1Ev to void (i8*)*), i8* getelementptr inbounds (%"class.std::ios_base::Init", %"class.std::ios_base::Init"* @_ZStL8__ioinit, i64 0, i32 0), i8* nonnull @__dso_handle) #8
  ret void
}

; Function Attrs: nofree nosync nounwind readnone willreturn
declare i32 @llvm.vector.reduce.add.v4i32(<4 x i32>) #7


!llvm.module.flags = !{!0, !1, !2, !3}
!llvm.ident = !{!4}

!0 = !{i32 1, !"wchar_size", i32 4}
!1 = !{i32 7, !"PIC Level", i32 2}
!2 = !{i32 7, !"PIE Level", i32 2}
!3 = !{i32 7, !"uwtable", i32 1}
!4 = !{!"clang version 13.0.0"}
!5 = !{!6, !6, i64 0}
!6 = !{!"int", !7, i64 0}
!7 = !{!"omnipotent char", !8, i64 0}
!8 = !{!"Simple C++ TBAA"}
!9 = distinct !{!9, !10, !11}
!10 = !{!"llvm.loop.mustprogress"}
!11 = !{!"llvm.loop.isvectorized", i32 1}
!12 = !{!13, !13, i64 0}
!13 = !{!"vtable pointer", !8, i64 0}
!14 = !{!15, !16, i64 240}
!15 = !{!"_ZTSSt9basic_iosIcSt11char_traitsIcEE", !16, i64 216, !7, i64 224, !17, i64 225, !16, i64 232, !16, i64 240, !16, i64 248, !16, i64 256}
!16 = !{!"any pointer", !7, i64 0}
!17 = !{!"bool", !7, i64 0}
!18 = !{!19, !7, i64 56}
!19 = !{!"_ZTSSt5ctypeIcE", !16, i64 16, !17, i64 24, !16, i64 32, !16, i64 40, !16, i64 48, !7, i64 56, !7, i64 57, !7, i64 313, !7, i64 569}
!20 = !{!7, !7, i64 0}
!21 = distinct !{!21, !10, !22, !11}
!22 = !{!"llvm.loop.unroll.runtime.disable"}
